; ModuleID = 'source-C-CXX/42/1095.c'
source_filename = "source-C-CXX/42/1095.c"
target datalayout = "e-m:e-p270:32:32-p271:32:32-p272:64:64-i64:64-f80:128-n8:16:32:64-S128"
target triple = "x86_64-pc-linux-gnu"

@.str = private unnamed_addr constant [3 x i8] c"%d\00", align 1
@.str.1 = private unnamed_addr constant [7 x i8] c"%d %d\0A\00", align 1

; Function Attrs: nofree nounwind sspstrong uwtable
define dso_local i32 @main() local_unnamed_addr #0 {
  %1 = alloca i32, align 4
  %2 = bitcast i32* %1 to i8*
  call void @llvm.lifetime.start.p0i8(i64 4, i8* nonnull %2) #3
  %3 = call i32 (i8*, ...) @__isoc99_scanf(i8* getelementptr inbounds ([3 x i8], [3 x i8]* @.str, i64 0, i64 0), i32* nonnull %1)
  %4 = load i32, i32* %1, align 4, !tbaa !5
  %5 = icmp slt i32 %4, 6
  br i1 %5, label %35, label %6

6:                                                ; preds = %0, %30
  %7 = phi i32 [ %31, %30 ], [ %4, %0 ]
  %8 = phi i32 [ %32, %30 ], [ 3, %0 ]
  %9 = sub nsw i32 %7, %8
  %10 = icmp ugt i32 %8, 3
  br i1 %10, label %15, label %13

11:                                               ; preds = %15
  %12 = icmp ult i32 %19, %8
  br i1 %12, label %15, label %13, !llvm.loop !9

13:                                               ; preds = %11, %6
  %14 = icmp sgt i32 %9, 3
  br i1 %14, label %22, label %27

15:                                               ; preds = %6, %11
  %16 = phi i32 [ %19, %11 ], [ 3, %6 ]
  %17 = urem i32 %8, %16
  %18 = icmp eq i32 %17, 0
  %19 = add nuw nsw i32 %16, 2
  br i1 %18, label %30, label %11

20:                                               ; preds = %22
  %21 = icmp slt i32 %26, %9
  br i1 %21, label %22, label %27, !llvm.loop !11

22:                                               ; preds = %13, %20
  %23 = phi i32 [ %26, %20 ], [ 3, %13 ]
  %24 = srem i32 %9, %23
  %25 = icmp eq i32 %24, 0
  %26 = add nuw nsw i32 %23, 2
  br i1 %25, label %30, label %20

27:                                               ; preds = %20, %13
  %28 = call i32 (i8*, ...) @printf(i8* nonnull dereferenceable(1) getelementptr inbounds ([7 x i8], [7 x i8]* @.str.1, i64 0, i64 0), i32 %8, i32 %9)
  %29 = load i32, i32* %1, align 4, !tbaa !5
  br label %30

30:                                               ; preds = %15, %22, %27
  %31 = phi i32 [ %29, %27 ], [ %7, %22 ], [ %7, %15 ]
  %32 = add nuw nsw i32 %8, 2
  %33 = sdiv i32 %31, 2
  %34 = icmp sgt i32 %32, %33
  br i1 %34, label %35, label %6, !llvm.loop !12

35:                                               ; preds = %30, %0
  call void @llvm.lifetime.end.p0i8(i64 4, i8* nonnull %2) #3
  ret i32 0
}

; Function Attrs: argmemonly mustprogress nofree nosync nounwind willreturn
declare void @llvm.lifetime.start.p0i8(i64 immarg, i8* nocapture) #1

; Function Attrs: nofree nounwind
declare noundef i32 @__isoc99_scanf(i8* nocapture noundef readonly, ...) local_unnamed_addr #2

; Function Attrs: nofree nounwind
declare noundef i32 @printf(i8* nocapture noundef readonly, ...) local_unnamed_addr #2

; Function Attrs: argmemonly mustprogress nofree nosync nounwind willreturn
declare void @llvm.lifetime.end.p0i8(i64 immarg, i8* nocapture) #1


!llvm.module.flags = !{!0, !1, !2, !3}
!llvm.ident = !{!4}

!0 = !{i32 1, !"wchar_size", i32 4}
!1 = !{i32 7, !"PIC Level", i32 2}
!2 = !{i32 7, !"PIE Level", i32 2}
!3 = !{i32 7, !"uwtable", i32 1}
!4 = !{!"clang version 13.0.0"}
!5 = !{!6, !6, i64 0}
!6 = !{!"int", !7, i64 0}
!7 = !{!"omnipotent char", !8, i64 0}
!8 = !{!"Simple C/C++ TBAA"}
!9 = distinct !{!9, !10}
!10 = !{!"llvm.loop.mustprogress"}
!11 = distinct !{!11, !10}
!12 = distinct !{!12, !10}
